target datalayout = "e-m:e-p270:32:32-p271:32:32-p272:64:64-i64:64-i128:128-f80:128-n8:16:32:64-S128"
target triple = "x86_64-pc-linux-gnu"

%struct.GetBitContext = type { ptr, ptr, i32, i32, i32 }

@.str.21 = private unnamed_addr constant [39 x i8] c"Audio specific config size is invalid\0A\00", align 1

; Function Attrs: inlinehint nounwind uwtable
define internal i32 @init_get_bits(ptr noundef %0, ptr noundef %1, i32 noundef %2) #6 {
  %4 = alloca ptr, align 8
  %5 = alloca ptr, align 8
  %6 = alloca i32, align 4
  %7 = alloca i32, align 4
  %8 = alloca i32, align 4
  store ptr %0, ptr %4, align 8, !tbaa !111
  store ptr %1, ptr %5, align 8, !tbaa !9
  store i32 %2, ptr %6, align 4, !tbaa !11
  call void @llvm.lifetime.start.p0(i64 4, ptr %7) #12
  call void @llvm.lifetime.start.p0(i64 4, ptr %8) #12
  store i32 0, ptr %8, align 4, !tbaa !11
  %9 = load i32, ptr %6, align 4, !tbaa !11
  %10 = icmp sge i32 %9, 2147483135
  br i1 %10, label %17, label %11

11:                                               ; preds = %3
  %12 = load i32, ptr %6, align 4, !tbaa !11
  %13 = icmp slt i32 %12, 0
  br i1 %13, label %17, label %14

14:                                               ; preds = %11
  %15 = load ptr, ptr %5, align 8, !tbaa !9
  %16 = icmp ne ptr %15, null
  br i1 %16, label %18, label %17

17:                                               ; preds = %14, %11, %3
  store i32 0, ptr %6, align 4, !tbaa !11
  store ptr null, ptr %5, align 8, !tbaa !9
  store i32 -1094995529, ptr %8, align 4, !tbaa !11
  br label %18

18:                                               ; preds = %17, %14
  %19 = load i32, ptr %6, align 4, !tbaa !11
  %20 = add nsw i32 %19, 7
  %21 = ashr i32 %20, 3
  store i32 %21, ptr %7, align 4, !tbaa !11
  %22 = load ptr, ptr %5, align 8, !tbaa !9
  %23 = load ptr, ptr %4, align 8, !tbaa !111
  %24 = getelementptr inbounds nuw %struct.GetBitContext, ptr %23, i32 0, i32 0
  store ptr %22, ptr %24, align 8, !tbaa !125
  %25 = load i32, ptr %6, align 4, !tbaa !11
  %26 = load ptr, ptr %4, align 8, !tbaa !111
  %27 = getelementptr inbounds nuw %struct.GetBitContext, ptr %26, i32 0, i32 3
  store i32 %25, ptr %27, align 4, !tbaa !197
  %28 = load i32, ptr %6, align 4, !tbaa !11
  %29 = add nsw i32 %28, 8
  %30 = load ptr, ptr %4, align 8, !tbaa !111
  %31 = getelementptr inbounds nuw %struct.GetBitContext, ptr %30, i32 0, i32 4
  store i32 %29, ptr %31, align 8, !tbaa !124
  %32 = load ptr, ptr %5, align 8, !tbaa !9
  %33 = load i32, ptr %7, align 4, !tbaa !11
  %34 = sext i32 %33 to i64
  %35 = getelementptr inbounds i8, ptr %32, i64 %34
  %36 = load ptr, ptr %4, align 8, !tbaa !111
  %37 = getelementptr inbounds nuw %struct.GetBitContext, ptr %36, i32 0, i32 1
  store ptr %35, ptr %37, align 8, !tbaa !198
  %38 = load ptr, ptr %4, align 8, !tbaa !111
  %39 = getelementptr inbounds nuw %struct.GetBitContext, ptr %38, i32 0, i32 2
  store i32 0, ptr %39, align 8, !tbaa !122
  %40 = load i32, ptr %8, align 4, !tbaa !11
  call void @llvm.lifetime.end.p0(i64 4, ptr %8) #12
  call void @llvm.lifetime.end.p0(i64 4, ptr %7) #12
  ret i32 %40
}

; Function Attrs: nounwind uwtable
define internal i32 @decode_audio_specific_config(ptr noundef %0, ptr noundef %1, ptr noundef %2, ptr noundef %3, i64 noundef %4, i32 noundef %5) #0 {
  %7 = alloca i32, align 4
  %8 = alloca ptr, align 8
  %9 = alloca ptr, align 8
  %10 = alloca ptr, align 8
  %11 = alloca ptr, align 8
  %12 = alloca i64, align 8
  %13 = alloca i32, align 4
  %14 = alloca i32, align 4
  %15 = alloca i32, align 4
  %16 = alloca %struct.GetBitContext, align 8
  %17 = alloca i32, align 4
  store ptr %0, ptr %8, align 8, !tbaa !4
  store ptr %1, ptr %9, align 8, !tbaa !22
  store ptr %2, ptr %10, align 8, !tbaa !102
  store ptr %3, ptr %11, align 8, !tbaa !9
  store i64 %4, ptr %12, align 8, !tbaa !23
  store i32 %5, ptr %13, align 4, !tbaa !11
  call void @llvm.lifetime.start.p0(i64 4, ptr %14) #12
  call void @llvm.lifetime.start.p0(i64 4, ptr %15) #12
  call void @llvm.lifetime.start.p0(i64 32, ptr %16) #12
  %18 = load i64, ptr %12, align 8, !tbaa !23
  %19 = icmp slt i64 %18, 0
  br i1 %19, label %23, label %20

20:                                               ; preds = %6
  %21 = load i64, ptr %12, align 8, !tbaa !23
  %22 = icmp sgt i64 %21, 2147483647
  br i1 %22, label %23, label %25

23:                                               ; preds = %20, %6
  %24 = load ptr, ptr %9, align 8, !tbaa !22
  call void (ptr, i32, ptr, ...) @av_log(ptr noundef %24, i32 noundef 16, ptr noundef @.str.21)
  store i32 -1094995529, ptr %7, align 4
  store i32 1, ptr %17, align 4
  br label %59

25:                                               ; preds = %20
  br label %26

26:                                               ; preds = %25
  br label %27

27:                                               ; preds = %26
  br label %28

28:                                               ; preds = %27
  store i32 0, ptr %14, align 4, !tbaa !11
  br label %29

29:                                               ; preds = %39, %28
  %30 = load i32, ptr %14, align 4, !tbaa !11
  %31 = sext i32 %30 to i64
  %32 = load i64, ptr %12, align 8, !tbaa !23
  %33 = ashr i64 %32, 3
  %34 = icmp slt i64 %31, %33
  br i1 %34, label %35, label %42

35:                                               ; preds = %29
  br label %36

36:                                               ; preds = %35
  br label %37

37:                                               ; preds = %36
  br label %38

38:                                               ; preds = %37
  br label %39

39:                                               ; preds = %38
  %40 = load i32, ptr %14, align 4, !tbaa !11
  %41 = add nsw i32 %40, 1
  store i32 %41, ptr %14, align 4, !tbaa !11
  br label %29, !llvm.loop !104

42:                                               ; preds = %29
  br label %43

43:                                               ; preds = %42
  br label %44

44:                                               ; preds = %43
  br label %45

45:                                               ; preds = %44
  %46 = load ptr, ptr %11, align 8, !tbaa !9
  %47 = load i64, ptr %12, align 8, !tbaa !23
  %48 = trunc i64 %47 to i32
  %49 = call i32 @init_get_bits(ptr noundef %16, ptr noundef %46, i32 noundef %48)
  store i32 %49, ptr %15, align 4, !tbaa !11
  %50 = icmp slt i32 %49, 0
  br i1 %50, label %51, label %53

51:                                               ; preds = %45
  %52 = load i32, ptr %15, align 4, !tbaa !11
  store i32 %52, ptr %7, align 4
  store i32 1, ptr %17, align 4
  br label %59

53:                                               ; preds = %45
  %54 = load ptr, ptr %8, align 8, !tbaa !4
  %55 = load ptr, ptr %9, align 8, !tbaa !22
  %56 = load ptr, ptr %10, align 8, !tbaa !102
  %57 = load i32, ptr %13, align 4, !tbaa !11
  %58 = call i32 @decode_audio_specific_config_gb(ptr noundef %54, ptr noundef %55, ptr noundef %56, ptr noundef %16, i32 noundef 0, i32 noundef %57)
  store i32 %58, ptr %7, align 4
  store i32 1, ptr %17, align 4
  br label %59

59:                                               ; preds = %53, %51, %23
  call void @llvm.lifetime.end.p0(i64 32, ptr %16) #12
  call void @llvm.lifetime.end.p0(i64 4, ptr %15) #12
  call void @llvm.lifetime.end.p0(i64 4, ptr %14) #12
  %60 = load i32, ptr %7, align 4
  ret i32 %60
}