; Function Attrs: nounwind uwtable
define internal fastcc i32 @decode_audio_specific_config(ptr noundef %0, ptr noundef %1, ptr noundef %2, ptr noundef %3, i64 noundef %4) unnamed_addr #0 {
  %6 = alloca %struct.GetBitContext, align 8
  call void @llvm.lifetime.start.p0(i64 32, ptr nonnull %6) #13
  %or.cond = icmp ugt i64 %4, 2147483647
  br i1 %or.cond, label %18, label %.preheader

.preheader:                                       ; preds = %5
  %7 = trunc nuw nsw i64 %4 to i32
  %or.cond.i = icmp samesign ult i64 %4, 2147483135
  %8 = icmp ne ptr %3, null
  %or.cond3.i = and i1 %8, %or.cond.i
  %.018.i = select i1 %or.cond3.i, i32 %7, i32 0
  %.017.i = select i1 %or.cond.i, ptr %3, ptr null
  %9 = add nuw nsw i32 %.018.i, 7
  %10 = lshr i32 %9, 3
  store ptr %.017.i, ptr %6, align 8, !tbaa !100
  %11 = getelementptr inbounds nuw i8, ptr %6, i64 20
  store i32 %.018.i, ptr %11, align 4, !tbaa !102
  %12 = add nuw nsw i32 %.018.i, 8
  %13 = getelementptr inbounds nuw i8, ptr %6, i64 24
  store i32 %12, ptr %13, align 8, !tbaa !103
  %14 = zext nneg i32 %10 to i64
  %15 = getelementptr inbounds nuw i8, ptr %.017.i, i64 %14
  %16 = getelementptr inbounds nuw i8, ptr %6, i64 8
  store ptr %15, ptr %16, align 8, !tbaa !104
  %17 = getelementptr inbounds nuw i8, ptr %6, i64 16
  store i32 0, ptr %17, align 8, !tbaa !105
  br i1 %or.cond3.i, label %19, label %21

18:                                               ; preds = %5
  tail call void (ptr, i32, ptr, ...) @av_log(ptr noundef %1, i32 noundef 16, ptr noundef nonnull @.str.21) #13
  br label %21

19:                                               ; preds = %.preheader
  %20 = call fastcc i32 @decode_audio_specific_config_gb(ptr noundef %0, ptr noundef %1, ptr noundef %2, ptr noundef %6, i32 noundef 0, i32 noundef 1)
  br label %21

21:                                               ; preds = %.preheader, %19, %18
  %.0 = phi i32 [ -1094995529, %18 ], [ %20, %19 ], [ -1094995529, %.preheader ]
  call void @llvm.lifetime.end.p0(i64 32, ptr nonnull %6) #13
  ret i32 %.0
}